; Function Attrs: mustprogress uwtable
define noalias ptr @lean_io_bind_task(ptr noundef %0, ptr noundef %1, ptr noundef %2, i8 noundef zeroext %3, ptr noundef readnone captures(none) %4) local_unnamed_addr #0 {
  tail call void @lean_inc_heartbeat()
  %6 = tail call noalias ptr @mi_malloc_small(i64 noundef 32) #27
  %7 = icmp eq ptr %6, null
  br i1 %7, label %8, label %_ZL18lean_alloc_closurePvjj.exit

8:                                                ; preds = %5
  tail call void @lean_internal_panic_out_of_memory() #28
  unreachable

_ZL18lean_alloc_closurePvjj.exit:                 ; preds = %5
  %9 = getelementptr inbounds nuw i8, ptr %6, i64 4
  store i32 1, ptr %6, align 4, !tbaa !7
  store i32 -184549344, ptr %9, align 4
  %10 = getelementptr inbounds nuw i8, ptr %6, i64 8
  store ptr @_ZN4leanL20lean_io_bind_task_fnEP11lean_objectS1_, ptr %10, align 8, !tbaa !3
  %11 = getelementptr inbounds nuw i8, ptr %6, i64 16
  store i16 2, ptr %11, align 8, !tbaa !110
  %12 = getelementptr inbounds nuw i8, ptr %6, i64 18
  store i16 1, ptr %12, align 2, !tbaa !110
  %13 = getelementptr inbounds nuw i8, ptr %6, i64 24
  store ptr %1, ptr %13, align 8, !tbaa !3
  %14 = ptrtoint ptr %2 to i64
  %15 = lshr i64 %14, 1
  %16 = trunc i64 %15 to i32
  %17 = icmp ne i8 %3, 0
  %18 = tail call ptr @lean_task_bind_core(ptr noundef %0, ptr noundef nonnull %6, i32 noundef %16, i1 noundef zeroext %17, i1 noundef zeroext true)
  tail call void @lean_inc_heartbeat()
  %19 = tail call noalias ptr @mi_malloc_small(i64 noundef 24) #27
  %20 = icmp eq ptr %19, null
  br i1 %20, label %21, label %_ZN4lean15io_result_mk_okEP11lean_object.exit

21:                                               ; preds = %_ZL18lean_alloc_closurePvjj.exit
  tail call void @lean_internal_panic_out_of_memory() #28
  unreachable

_ZN4lean15io_result_mk_okEP11lean_object.exit:    ; preds = %_ZL18lean_alloc_closurePvjj.exit
  %22 = getelementptr inbounds nuw i8, ptr %19, i64 4
  store i32 1, ptr %19, align 4, !tbaa !7
  store i32 131096, ptr %22, align 4
  %23 = getelementptr inbounds nuw i8, ptr %19, i64 8
  store ptr %18, ptr %23, align 8, !tbaa !3
  %24 = getelementptr inbounds nuw i8, ptr %19, i64 16
  store ptr inttoptr (i64 1 to ptr), ptr %24, align 8, !tbaa !3
  ret ptr %19
}